(lp0
I87
aI148
aI212
aI265
aI310
aI357
aI393
aI419
aI472
aI495
aI534
aI568
aI605
aI638
aI671
aI695
aI720
aI753
aI778
aI810
aI836
aI863
aI884
aI911
aI934
aI954
aI984
aI1005
aI1035
aI1064
aI1090
aI1118
aI1148
aI1152
aI1170
aI1191
aI1208
aI1226
aI1242
aI1277
aI1291
aI1324
aI1333
aI1366
aI1387
aI1399
aI1415
aI1433
aI1453
aI1467
aI1487
aI1504
aI1514
aI1530
aI1557
aI1587
aI1604
aI1620
aI1629
a.